target datalayout = "e-m:e-p270:32:32-p271:32:32-p272:64:64-i64:64-i128:128-f80:128-n8:16:32:64-S128"
target triple = "x86_64-pc-linux-gnu"

%class.ThreadShadow = type <{ ptr, ptr, ptr, i32, [4 x i8] }>
%class.ResourceHashtableBase.8 = type <{ %class.FixedResourceHashtableStorage.9, i32, [4 x i8] }>
%class.FixedResourceHashtableStorage.9 = type { [139 x ptr] }
%class.ResourceHashtableBase.13 = type <{ %class.FixedResourceHashtableStorage.14, i32, [4 x i8] }>
%class.FixedResourceHashtableStorage.14 = type { [139 x ptr] }

@_ZL30_invoke_method_intrinsic_table = internal global ptr null, align 8
@_ZL25_invoke_method_type_table = internal global ptr null, align 8

; Function Attrs: mustprogress nounwind uwtable
define linkonce_odr hidden void @_ZN29FixedResourceHashtableStorageILj139E16SymbolHandleBaseILb0EE9OopHandleEC2Ev(ptr noundef nonnull align 8 dereferenceable(1112) %0) unnamed_addr #1 comdat align 2 {
  %2 = alloca ptr, align 8
  store ptr %0, ptr %2, align 8
  %3 = load ptr, ptr %2, align 8
  %4 = getelementptr inbounds %class.FixedResourceHashtableStorage.14, ptr %3, i32 0, i32 0
  %5 = getelementptr inbounds [139 x ptr], ptr %4, i64 0, i64 0
  call void @llvm.memset.p0.i64(ptr align 8 %5, i8 0, i64 1112, i1 false)
  ret void
}

; Function Attrs: mustprogress nounwind uwtable
define linkonce_odr hidden void @_ZN29FixedResourceHashtableStorageILj139E15InvokeMethodKeyP6MethodEC2Ev(ptr noundef nonnull align 8 dereferenceable(1112) %0) unnamed_addr #1 comdat align 2 {
  %2 = alloca ptr, align 8
  store ptr %0, ptr %2, align 8
  %3 = load ptr, ptr %2, align 8
  %4 = getelementptr inbounds %class.FixedResourceHashtableStorage.9, ptr %3, i32 0, i32 0
  %5 = getelementptr inbounds [139 x ptr], ptr %4, i64 0, i64 0
  call void @llvm.memset.p0.i64(ptr align 8 %5, i8 0, i64 1112, i1 false)
  ret void
}

; Function Attrs: mustprogress nounwind uwtable
define linkonce_odr hidden void @_ZN21ResourceHashtableBaseI29FixedResourceHashtableStorageILj139E16SymbolHandleBaseILb0EE9OopHandleES2_S3_LN6AnyObj15allocation_typeE2EL8MEMFLAGS1EXadL_ZNS2_12compute_hashERKS2_EEXadL_Z16primitive_equalsIS2_EbRKT_SD_EEEC2Ev(ptr noundef nonnull align 8 dereferenceable(1116) %0) unnamed_addr #1 comdat align 2 {
  %2 = alloca ptr, align 8
  store ptr %0, ptr %2, align 8
  %3 = load ptr, ptr %2, align 8
  call void @_ZN29FixedResourceHashtableStorageILj139E16SymbolHandleBaseILb0EE9OopHandleEC2Ev(ptr noundef nonnull align 8 dereferenceable(1112) %3)
  %4 = getelementptr inbounds %class.ResourceHashtableBase.13, ptr %3, i32 0, i32 1
  store i32 0, ptr %4, align 8
  ret void
}

; Function Attrs: mustprogress nounwind uwtable
define linkonce_odr hidden void @_ZN21ResourceHashtableBaseI29FixedResourceHashtableStorageILj139E15InvokeMethodKeyP6MethodES1_S3_LN6AnyObj15allocation_typeE2EL8MEMFLAGS1EXadL_ZNS1_12compute_hashERKS1_EEXadL_ZNS1_14key_comparisonES9_S9_EEEC2Ev(ptr noundef nonnull align 8 dereferenceable(1116) %0) unnamed_addr #1 comdat align 2 {
  %2 = alloca ptr, align 8
  store ptr %0, ptr %2, align 8
  %3 = load ptr, ptr %2, align 8
  call void @_ZN29FixedResourceHashtableStorageILj139E15InvokeMethodKeyP6MethodEC2Ev(ptr noundef nonnull align 8 dereferenceable(1112) %3)
  %4 = getelementptr inbounds %class.ResourceHashtableBase.8, ptr %3, i32 0, i32 1
  store i32 0, ptr %4, align 8
  ret void
}

; Function Attrs: mustprogress nounwind uwtable
define linkonce_odr hidden noundef zeroext i1 @_ZNK12ThreadShadow21has_pending_exceptionEv(ptr noundef nonnull align 8 dereferenceable(28) %0) #1 comdat align 2 {
  %2 = alloca ptr, align 8
  store ptr %0, ptr %2, align 8
  %3 = load ptr, ptr %2, align 8
  %4 = getelementptr inbounds %class.ThreadShadow, ptr %3, i32 0, i32 1
  %5 = load ptr, ptr %4, align 8
  %6 = icmp ne ptr %5, null
  ret i1 %6
}

; Function Attrs: mustprogress nounwind uwtable
define linkonce_odr hidden void @_ZN17ResourceHashtableI16SymbolHandleBaseILb0EE9OopHandleLj139ELN6AnyObj15allocation_typeE2EL8MEMFLAGS1EXadL_ZNS1_12compute_hashERKS1_EEXadL_Z16primitive_equalsIS1_EbRKT_SB_EEEC2Ev(ptr noundef nonnull align 8 dereferenceable(1116) %0) unnamed_addr #1 comdat align 2 {
  %2 = alloca ptr, align 8
  store ptr %0, ptr %2, align 8
  %3 = load ptr, ptr %2, align 8
  call void @_ZN21ResourceHashtableBaseI29FixedResourceHashtableStorageILj139E16SymbolHandleBaseILb0EE9OopHandleES2_S3_LN6AnyObj15allocation_typeE2EL8MEMFLAGS1EXadL_ZNS2_12compute_hashERKS2_EEXadL_Z16primitive_equalsIS2_EbRKT_SD_EEEC2Ev(ptr noundef nonnull align 8 dereferenceable(1116) %3)
  ret void
}

; Function Attrs: mustprogress nounwind uwtable
define linkonce_odr hidden void @_ZN17ResourceHashtableI15InvokeMethodKeyP6MethodLj139ELN6AnyObj15allocation_typeE2EL8MEMFLAGS1EXadL_ZNS0_12compute_hashERKS0_EEXadL_ZNS0_14key_comparisonES7_S7_EEEC2Ev(ptr noundef nonnull align 8 dereferenceable(1116) %0) unnamed_addr #1 comdat align 2 {
  %2 = alloca ptr, align 8
  store ptr %0, ptr %2, align 8
  %3 = load ptr, ptr %2, align 8
  call void @_ZN21ResourceHashtableBaseI29FixedResourceHashtableStorageILj139E15InvokeMethodKeyP6MethodES1_S3_LN6AnyObj15allocation_typeE2EL8MEMFLAGS1EXadL_ZNS1_12compute_hashERKS1_EEXadL_ZNS1_14key_comparisonES9_S9_EEEC2Ev(ptr noundef nonnull align 8 dereferenceable(1116) %3)
  ret void
}

; Function Attrs: mustprogress nounwind uwtable
define hidden void @_ZN16SystemDictionary10initializeEP10JavaThread(ptr noundef %0) #1 align 2 {
  %2 = alloca ptr, align 8
  store ptr %0, ptr %2, align 8
  %3 = call noundef ptr @_ZN6AnyObjnwEm8MEMFLAGS(i64 noundef 1120, i8 noundef zeroext 1) #9
  %4 = icmp eq ptr %3, null
  br i1 %4, label %6, label %5

5:                                                ; preds = %1
  call void @_ZN17ResourceHashtableI15InvokeMethodKeyP6MethodLj139ELN6AnyObj15allocation_typeE2EL8MEMFLAGS1EXadL_ZNS0_12compute_hashERKS0_EEXadL_ZNS0_14key_comparisonES7_S7_EEEC2Ev(ptr noundef nonnull align 8 dereferenceable(1116) %3)
  br label %6

6:                                                ; preds = %5, %1
  %7 = phi ptr [ %3, %5 ], [ null, %1 ]
  store ptr %7, ptr @_ZL30_invoke_method_intrinsic_table, align 8
  %8 = call noundef ptr @_ZN6AnyObjnwEm8MEMFLAGS(i64 noundef 1120, i8 noundef zeroext 1) #9
  %9 = icmp eq ptr %8, null
  br i1 %9, label %11, label %10

10:                                               ; preds = %6
  call void @_ZN17ResourceHashtableI16SymbolHandleBaseILb0EE9OopHandleLj139ELN6AnyObj15allocation_typeE2EL8MEMFLAGS1EXadL_ZNS1_12compute_hashERKS1_EEXadL_Z16primitive_equalsIS1_EbRKT_SB_EEEC2Ev(ptr noundef nonnull align 8 dereferenceable(1116) %8)
  br label %11

11:                                               ; preds = %10, %6
  %12 = phi ptr [ %8, %10 ], [ null, %6 ]
  store ptr %12, ptr @_ZL25_invoke_method_type_table, align 8
  call void @_ZN20ResolutionErrorTable10initializeEv()
  call void @_ZN21LoaderConstraintTable10initializeEv()
  call void @_ZN16PlaceholderTable10initializeEv()
  call void @_ZN26ProtectionDomainCacheTable10initializeEv()
  call void @_ZN22SystemDictionaryShared10initializeEv()
  %13 = load ptr, ptr %2, align 8
  call void @_ZN9vmClasses11resolve_allEP10JavaThread(ptr noundef %13)
  %14 = load ptr, ptr %2, align 8
  %15 = call noundef zeroext i1 @_ZNK12ThreadShadow21has_pending_exceptionEv(ptr noundef nonnull align 8 dereferenceable(28) %14)
  br i1 %15, label %16, label %17

16:                                               ; preds = %11
  br label %21

17:                                               ; preds = %11
  %18 = call noundef zeroext i1 @_ZN9CDSConfig16is_using_archiveEv()
  br i1 %18, label %19, label %21

19:                                               ; preds = %17
  %20 = load ptr, ptr %2, align 8
  call void @_ZN10HeapShared15resolve_classesEP10JavaThread(ptr noundef %20)
  br label %21

21:                                               ; preds = %19, %17, %16
  ret void
}