; Function Attrs: mustprogress nounwind uwtable
define hidden void @_ZN16SystemDictionary10initializeEP10JavaThread(ptr noundef %0) local_unnamed_addr #0 align 2 {
  %2 = tail call noundef ptr @_ZN6AnyObjnwEm8MEMFLAGS(i64 noundef 1120, i8 noundef zeroext 1) #14
  %3 = icmp eq ptr %2, null
  br i1 %3, label %5, label %4

4:                                                ; preds = %1
  tail call void @llvm.memset.p0.i64(ptr noundef nonnull align 8 dereferenceable(1116) %2, i8 0, i64 1116, i1 false)
  br label %5

5:                                                ; preds = %4, %1
  store ptr %2, ptr @_ZL30_invoke_method_intrinsic_table, align 8
  %6 = tail call noundef ptr @_ZN6AnyObjnwEm8MEMFLAGS(i64 noundef 1120, i8 noundef zeroext 1) #14
  %7 = icmp eq ptr %6, null
  br i1 %7, label %9, label %8

8:                                                ; preds = %5
  tail call void @llvm.memset.p0.i64(ptr noundef nonnull align 8 dereferenceable(1116) %6, i8 0, i64 1116, i1 false)
  br label %9

9:                                                ; preds = %8, %5
  store ptr %6, ptr @_ZL25_invoke_method_type_table, align 8
  tail call void @_ZN20ResolutionErrorTable10initializeEv() #14
  tail call void @_ZN21LoaderConstraintTable10initializeEv() #14
  tail call void @_ZN16PlaceholderTable10initializeEv() #14
  tail call void @_ZN26ProtectionDomainCacheTable10initializeEv() #14
  tail call void @_ZN22SystemDictionaryShared10initializeEv() #14
  tail call void @_ZN9vmClasses11resolve_allEP10JavaThread(ptr noundef %0) #14
  %10 = getelementptr inbounds i8, ptr %0, i64 8
  %11 = load ptr, ptr %10, align 8
  %.not = icmp eq ptr %11, null
  br i1 %.not, label %12, label %15

12:                                               ; preds = %9
  %13 = tail call noundef zeroext i1 @_ZN9CDSConfig16is_using_archiveEv() #14
  br i1 %13, label %14, label %15

14:                                               ; preds = %12
  tail call void @_ZN10HeapShared15resolve_classesEP10JavaThread(ptr noundef nonnull %0) #14
  br label %15

15:                                               ; preds = %9, %14, %12
  ret void
}